; Function Attrs: mustprogress nounwind uwtable
define hidden void @_ZN4cvc58internal6theory5arith8PolyNorm5clearEv(ptr noundef nonnull align 8 dereferenceable(48) %0) local_unnamed_addr #5 align 2 personality ptr @__gxx_personality_v0 {
  %2 = getelementptr inbounds nuw i8, ptr %0, i64 16
  %3 = load ptr, ptr %2, align 8, !tbaa !16
  invoke void @_ZNSt8_Rb_treeIN4cvc58internal12NodeTemplateILb1EEESt4pairIKS3_NS1_8RationalEESt10_Select1stIS7_ESt4lessIS3_ESaIS7_EE8_M_eraseEPSt13_Rb_tree_nodeIS7_E(ptr noundef nonnull align 8 dereferenceable(48) %0, ptr noundef %3)
          to label %_ZNSt3mapIN4cvc58internal12NodeTemplateILb1EEENS1_8RationalESt4lessIS3_ESaISt4pairIKS3_S4_EEE5clearEv.exit unwind label %4

4:                                                ; preds = %1
  %5 = landingpad { ptr, i32 }
          catch ptr null
  %6 = extractvalue { ptr, i32 } %5, 0
  tail call void @__clang_call_terminate(ptr %6) #25
  unreachable

_ZNSt3mapIN4cvc58internal12NodeTemplateILb1EEENS1_8RationalESt4lessIS3_ESaISt4pairIKS3_S4_EEE5clearEv.exit: ; preds = %1
  %7 = getelementptr inbounds nuw i8, ptr %0, i64 8
  store ptr null, ptr %2, align 8, !tbaa !16
  %8 = getelementptr inbounds nuw i8, ptr %0, i64 24
  store ptr %7, ptr %8, align 8, !tbaa !37
  %9 = getelementptr inbounds nuw i8, ptr %0, i64 32
  store ptr %7, ptr %9, align 8, !tbaa !39
  %10 = getelementptr inbounds nuw i8, ptr %0, i64 40
  store i64 0, ptr %10, align 8, !tbaa !40
  ret void
}